Certificate:
    Data:
        Version: 3 (0x2)
        Serial Number:
            6d:e2:9a:b8:34:67:a4:8e:84:14:81:41:e0:52:1a:d2
        Signature Algorithm: sha256WithRSAEncryption
        Issuer: CN=rasvpn
        Validity
            Not Before: May 21 11:19:02 2023 GMT
            Not After : Aug 23 11:19:02 2025 GMT
        Subject: CN=client
        Subject Public Key Info:
            Public Key Algorithm: rsaEncryption
                RSA Public-Key: (2048 bit)
                Modulus:
                    00:d6:ab:f7:a2:cf:61:a7:6f:1b:e3:04:e7:7e:db:
                    f8:0c:f1:b2:9f:a6:b2:b1:69:d0:14:36:96:f5:04:
                    6f:ba:db:ca:16:5b:76:2d:18:ca:00:f7:b2:d9:48:
                    2e:e8:7c:2e:c2:0e:53:b9:e6:ea:3f:32:30:f3:9d:
                    39:90:0f:97:05:ac:66:48:77:99:c6:37:d7:4e:3d:
                    3f:56:a7:31:1b:ab:60:53:35:4e:45:49:95:50:8a:
                    53:50:3f:00:c5:bd:d9:54:d8:2f:ba:2c:66:6f:f7:
                    c5:04:63:11:9d:9b:ca:1b:53:9d:1c:43:e0:5a:64:
                    50:ee:45:3b:06:54:c7:96:f0:bf:19:a6:d9:eb:18:
                    a3:ec:99:4f:9d:d6:e5:c8:46:e4:42:d7:8c:b3:78:
                    e4:a6:6a:96:54:f8:17:dc:9a:dd:22:96:94:db:da:
                    88:21:f4:ff:73:17:ce:c6:6b:49:fd:e2:89:e4:f6:
                    7d:a0:82:73:65:e4:2f:7d:68:de:42:20:7c:50:f1:
                    4c:76:90:be:4b:1f:4a:15:47:ca:b1:52:53:82:1d:
                    f1:dc:25:a6:b7:4a:d2:c4:83:94:5d:c2:82:2c:d4:
                    36:c6:2f:76:a5:5c:48:ce:dc:2e:a6:3c:d1:36:54:
                    e4:9d:59:0b:97:c7:02:b0:e2:b9:42:d2:52:c4:c8:
                    fd:33
                Exponent: 65537 (0x10001)
        X509v3 extensions:
            X509v3 Basic Constraints: 
                CA:FALSE
            X509v3 Subject Key Identifier: 
                5B:00:AB:79:C6:6A:EB:5F:81:F8:E9:C8:95:6F:08:16:C9:E8:B3:40
            X509v3 Authority Key Identifier: 
                keyid:61:82:3A:E0:68:B3:45:10:D8:97:1F:16:93:CE:5D:74:A5:DD:90:0D
                DirName:/CN=rasvpn
                serial:17:06:9B:AB:B4:77:58:BE:3F:F8:CE:6A:28:6D:0E:F6:DB:D5:10:5D

            X509v3 Extended Key Usage: 
                TLS Web Client Authentication
            X509v3 Key Usage: 
                Digital Signature
    Signature Algorithm: sha256WithRSAEncryption
         94:79:59:cf:7b:58:1d:3b:39:31:c8:4c:0c:83:64:5d:68:2b:
         91:3a:4c:e6:1b:07:94:1b:bb:41:db:cc:e1:6a:0f:74:89:10:
         cc:da:b6:83:bd:9e:46:41:b1:3e:d2:39:7f:bd:6c:60:fc:c6:
         8e:3e:63:49:10:e1:0c:c4:b7:32:29:37:43:89:8f:ff:b1:3b:
         94:2e:26:56:dc:8b:59:de:98:fb:15:77:88:fd:4f:08:c6:13:
         c7:a3:71:ec:dc:eb:ec:84:d4:54:5a:67:df:dc:e8:24:9b:52:
         90:39:03:59:9a:5f:7d:7d:9d:b3:62:b1:54:e8:d3:ec:88:6a:
         31:6e:0b:f0:8d:c9:b2:c8:b8:ce:a0:9a:3b:d4:0c:45:81:c9:
         2b:fe:c2:59:9a:d1:e6:77:bc:2c:7d:55:33:9f:cc:ec:c7:37:
         6c:d4:86:9e:82:e3:b0:b4:8d:d3:e3:34:15:1b:18:cd:28:03:
         47:cc:76:b1:c0:c6:e0:d0:88:e0:c9:09:e9:55:2a:67:c4:6c:
         c8:6f:2c:bb:a8:8d:19:dc:db:20:58:e6:27:28:db:ae:91:95:
         30:af:df:04:5b:83:8d:d1:bf:4c:66:4f:d0:c2:aa:10:60:58:
         44:3f:45:36:bc:aa:27:2c:94:b9:2e:a2:b8:b3:87:3f:5d:99:
         72:de:92:c5
-----BEGIN CERTIFICATE-----
MIIDSjCCAjKgAwIBAgIQbeKauDRnpI6EFIFB4FIa0jANBgkqhkiG9w0BAQsFADAR
MQ8wDQYDVQQDDAZyYXN2cG4wHhcNMjMwNTIxMTExOTAyWhcNMjUwODIzMTExOTAy
WjARMQ8wDQYDVQQDDAZjbGllbnQwggEiMA0GCSqGSIb3DQEBAQUAA4IBDwAwggEK
AoIBAQDWq/eiz2GnbxvjBOd+2/gM8bKfprKxadAUNpb1BG+628oWW3YtGMoA97LZ
SC7ofC7CDlO55uo/MjDznTmQD5cFrGZId5nGN9dOPT9WpzEbq2BTNU5FSZVQilNQ
PwDFvdlU2C+6LGZv98UEYxGdm8obU50cQ+BaZFDuRTsGVMeW8L8ZptnrGKPsmU+d
1uXIRuRC14yzeOSmapZU+Bfcmt0ilpTb2ogh9P9zF87Ga0n94onk9n2ggnNl5C99
aN5CIHxQ8Ux2kL5LH0oVR8qxUlOCHfHcJaa3StLEg5RdwoIs1DbGL3alXEjO3C6m
PNE2VOSdWQuXxwKw4rlC0lLEyP0zAgMBAAGjgZ0wgZowCQYDVR0TBAIwADAdBgNV
HQ4EFgQUWwCrecZq61+B+OnIlW8IFsnos0AwTAYDVR0jBEUwQ4AUYYI64GizRRDY
lx8Wk85ddKXdkA2hFaQTMBExDzANBgNVBAMMBnJhc3ZwboIUFwabq7R3WL4/+M5q
KG0O9tvVEF0wEwYDVR0lBAwwCgYIKwYBBQUHAwIwCwYDVR0PBAQDAgeAMA0GCSqG
SIb3DQEBCwUAA4IBAQCUeVnPe1gdOzkxyEwMg2RdaCuROkzmGweUG7tB28zhag90
iRDM2raDvZ5GQbE+0jl/vWxg/MaOPmNJEOEMxLcyKTdDiY//sTuULiZW3ItZ3pj7
FXeI/U8IxhPHo3Hs3OvshNRUWmff3Ogkm1KQOQNZml99fZ2zYrFU6NPsiGoxbgvw
jcmyyLjOoJo71AxFgckr/sJZmtHmd7wsfVUzn8zsxzds1IaeguOwtI3T4zQVGxjN
KANHzHaxwMbg0IjgyQnpVSpnxGzIbyy7qI0Z3NsgWOYnKNuukZUwr98EW4ON0b9M
Zk/QwqoQYFhEP0U2vKonLJS5LqK4s4c/XZly3pLF
-----END CERTIFICATE-----
